target datalayout = "e-m:e-p270:32:32-p271:32:32-p272:64:64-i64:64-i128:128-f80:128-n8:16:32:64-S128"
target triple = "x86_64-pc-linux-gnu"

%"class.icu_77::RBBITableBuilder" = type <{ ptr, ptr, ptr, ptr, ptr, ptr, i32, [4 x i8] }>
%"class.icu_77::UVector" = type { %"class.icu_77::UObject", i32, i32, ptr, ptr, ptr }
%"class.icu_77::UObject" = type { ptr }
%"class.icu_77::UnicodeString" = type { %"class.icu_77::Replaceable", %"union.icu_77::UnicodeString::StackBufferOrFields" }
%"class.icu_77::Replaceable" = type { %"class.icu_77::UObject" }
%"union.icu_77::UnicodeString::StackBufferOrFields" = type { %struct.anon.0, [32 x i8] }
%struct.anon.0 = type { i16, i32, i32, ptr }
%"struct.std::pair" = type { i32, i32 }
%struct.anon = type { i16, [27 x i16] }

; Function Attrs: inlinehint mustprogress nounwind uwtable
define linkonce_odr noundef ptr @_ZNK6icu_7713UnicodeString13getArrayStartEv(ptr noundef nonnull align 8 dereferenceable(64) %0) #1 comdat align 2 {
  %2 = alloca ptr, align 8
  store ptr %0, ptr %2, align 8, !tbaa !138
  %3 = load ptr, ptr %2, align 8
  %4 = getelementptr inbounds nuw %"class.icu_77::UnicodeString", ptr %3, i32 0, i32 1
  %5 = getelementptr inbounds nuw %struct.anon.0, ptr %4, i32 0, i32 0
  %6 = load i16, ptr %5, align 8, !tbaa !77
  %7 = sext i16 %6 to i32
  %8 = and i32 %7, 2
  %9 = icmp ne i32 %8, 0
  br i1 %9, label %10, label %14

10:                                               ; preds = %1
  %11 = getelementptr inbounds nuw %"class.icu_77::UnicodeString", ptr %3, i32 0, i32 1
  %12 = getelementptr inbounds nuw %struct.anon, ptr %11, i32 0, i32 1
  %13 = getelementptr inbounds [27 x i16], ptr %12, i64 0, i64 0
  br label %18

14:                                               ; preds = %1
  %15 = getelementptr inbounds nuw %"class.icu_77::UnicodeString", ptr %3, i32 0, i32 1
  %16 = getelementptr inbounds nuw %struct.anon.0, ptr %15, i32 0, i32 3
  %17 = load ptr, ptr %16, align 8, !tbaa !77
  br label %18

18:                                               ; preds = %14, %10
  %19 = phi ptr [ %13, %10 ], [ %17, %14 ]
  ret ptr %19
}

; Function Attrs: inlinehint mustprogress uwtable
define linkonce_odr noundef zeroext i16 @_ZNK6icu_7713UnicodeString8doCharAtEi(ptr noundef nonnull align 8 dereferenceable(64) %0, i32 noundef %1) #8 comdat align 2 {
  %3 = alloca i16, align 2
  %4 = alloca ptr, align 8
  %5 = alloca i32, align 4
  store ptr %0, ptr %4, align 8, !tbaa !138
  store i32 %1, ptr %5, align 4, !tbaa !26
  %6 = load ptr, ptr %4, align 8
  %7 = load i32, ptr %5, align 4, !tbaa !26
  %8 = call noundef i32 @_ZNK6icu_7713UnicodeString6lengthEv(ptr noundef nonnull align 8 dereferenceable(64) %6)
  %9 = icmp ult i32 %7, %8
  br i1 %9, label %10, label %16

10:                                               ; preds = %2
  %11 = call noundef ptr @_ZNK6icu_7713UnicodeString13getArrayStartEv(ptr noundef nonnull align 8 dereferenceable(64) %6)
  %12 = load i32, ptr %5, align 4, !tbaa !26
  %13 = sext i32 %12 to i64
  %14 = getelementptr inbounds i16, ptr %11, i64 %13
  %15 = load i16, ptr %14, align 2, !tbaa !176
  store i16 %15, ptr %3, align 2
  br label %17

16:                                               ; preds = %2
  store i16 -1, ptr %3, align 2
  br label %17

17:                                               ; preds = %16, %10
  %18 = load i16, ptr %3, align 2
  ret i16 %18
}

; Function Attrs: inlinehint mustprogress nounwind uwtable
define linkonce_odr noundef i32 @_ZNK6icu_7713UnicodeString14getShortLengthEv(ptr noundef nonnull align 8 dereferenceable(64) %0) #1 comdat align 2 {
  %2 = alloca ptr, align 8
  store ptr %0, ptr %2, align 8, !tbaa !138
  %3 = load ptr, ptr %2, align 8
  %4 = getelementptr inbounds nuw %"class.icu_77::UnicodeString", ptr %3, i32 0, i32 1
  %5 = getelementptr inbounds nuw %struct.anon.0, ptr %4, i32 0, i32 0
  %6 = load i16, ptr %5, align 8, !tbaa !77
  %7 = sext i16 %6 to i32
  %8 = ashr i32 %7, 5
  ret i32 %8
}

; Function Attrs: inlinehint mustprogress nounwind uwtable
define linkonce_odr noundef signext i8 @_ZNK6icu_7713UnicodeString14hasShortLengthEv(ptr noundef nonnull align 8 dereferenceable(64) %0) #1 comdat align 2 {
  %2 = alloca ptr, align 8
  store ptr %0, ptr %2, align 8, !tbaa !138
  %3 = load ptr, ptr %2, align 8
  %4 = getelementptr inbounds nuw %"class.icu_77::UnicodeString", ptr %3, i32 0, i32 1
  %5 = getelementptr inbounds nuw %struct.anon.0, ptr %4, i32 0, i32 0
  %6 = load i16, ptr %5, align 8, !tbaa !77
  %7 = sext i16 %6 to i32
  %8 = icmp sge i32 %7, 0
  %9 = zext i1 %8 to i8
  ret i8 %9
}

; Function Attrs: inlinehint mustprogress uwtable
define linkonce_odr noundef zeroext i16 @_ZNK6icu_7713UnicodeString6charAtEi(ptr noundef nonnull align 8 dereferenceable(64) %0, i32 noundef %1) #8 comdat align 2 {
  %3 = alloca ptr, align 8
  %4 = alloca i32, align 4
  store ptr %0, ptr %3, align 8, !tbaa !138
  store i32 %1, ptr %4, align 4, !tbaa !26
  %5 = load ptr, ptr %3, align 8
  %6 = load i32, ptr %4, align 4, !tbaa !26
  %7 = call noundef zeroext i16 @_ZNK6icu_7713UnicodeString8doCharAtEi(ptr noundef nonnull align 8 dereferenceable(64) %5, i32 noundef %6)
  ret i16 %7
}

; Function Attrs: inlinehint mustprogress uwtable
define linkonce_odr noundef i32 @_ZNK6icu_7713UnicodeString6lengthEv(ptr noundef nonnull align 8 dereferenceable(64) %0) #8 comdat align 2 {
  %2 = alloca ptr, align 8
  store ptr %0, ptr %2, align 8, !tbaa !138
  %3 = load ptr, ptr %2, align 8
  %4 = call noundef signext i8 @_ZNK6icu_7713UnicodeString14hasShortLengthEv(ptr noundef nonnull align 8 dereferenceable(64) %3)
  %5 = icmp ne i8 %4, 0
  br i1 %5, label %6, label %8

6:                                                ; preds = %1
  %7 = call noundef i32 @_ZNK6icu_7713UnicodeString14getShortLengthEv(ptr noundef nonnull align 8 dereferenceable(64) %3)
  br label %12

8:                                                ; preds = %1
  %9 = getelementptr inbounds nuw %"class.icu_77::UnicodeString", ptr %3, i32 0, i32 1
  %10 = getelementptr inbounds nuw %struct.anon.0, ptr %9, i32 0, i32 1
  %11 = load i32, ptr %10, align 4, !tbaa !77
  br label %12

12:                                               ; preds = %8, %6
  %13 = phi i32 [ %7, %6 ], [ %11, %8 ]
  ret i32 %13
}

; Function Attrs: inlinehint mustprogress nounwind uwtable
define linkonce_odr noundef i32 @_ZNK6icu_777UVector4sizeEv(ptr noundef nonnull align 8 dereferenceable(40) %0) #1 comdat align 2 {
  %2 = alloca ptr, align 8
  store ptr %0, ptr %2, align 8, !tbaa !31
  %3 = load ptr, ptr %2, align 8
  %4 = getelementptr inbounds nuw %"class.icu_77::UVector", ptr %3, i32 0, i32 1
  %5 = load i32, ptr %4, align 8, !tbaa !32
  ret i32 %5
}

; Function Attrs: mustprogress uwtable
define void @_ZN6icu_7716RBBITableBuilder15removeSafeStateESt4pairIiiE(ptr noundef nonnull align 8 dereferenceable(52) %0, i64 %1) #0 align 2 {
  %3 = alloca %"struct.std::pair", align 4
  %4 = alloca ptr, align 8
  %5 = alloca i32, align 4
  %6 = alloca i32, align 4
  %7 = alloca i32, align 4
  %8 = alloca i32, align 4
  %9 = alloca i32, align 4
  %10 = alloca ptr, align 8
  %11 = alloca i32, align 4
  %12 = alloca i32, align 4
  %13 = alloca i32, align 4
  %14 = alloca i32, align 4
  store i64 %1, ptr %3, align 4
  store ptr %0, ptr %4, align 8, !tbaa !3
  %15 = load ptr, ptr %4, align 8
  call void @llvm.lifetime.start.p0(i64 4, ptr %5) #11
  %16 = getelementptr inbounds nuw %"struct.std::pair", ptr %3, i32 0, i32 0
  %17 = load i32, ptr %16, align 4, !tbaa !126
  store i32 %17, ptr %5, align 4, !tbaa !26
  call void @llvm.lifetime.start.p0(i64 4, ptr %6) #11
  %18 = getelementptr inbounds nuw %"struct.std::pair", ptr %3, i32 0, i32 1
  %19 = load i32, ptr %18, align 4, !tbaa !128
  store i32 %19, ptr %6, align 4, !tbaa !26
  %20 = getelementptr inbounds nuw %"class.icu_77::RBBITableBuilder", ptr %15, i32 0, i32 4
  %21 = load ptr, ptr %20, align 8, !tbaa !21
  %22 = load i32, ptr %6, align 4, !tbaa !26
  call void @_ZN6icu_777UVector15removeElementAtEi(ptr noundef nonnull align 8 dereferenceable(40) %21, i32 noundef %22)
  call void @llvm.lifetime.start.p0(i64 4, ptr %7) #11
  %23 = getelementptr inbounds nuw %"class.icu_77::RBBITableBuilder", ptr %15, i32 0, i32 4
  %24 = load ptr, ptr %23, align 8, !tbaa !21
  %25 = call noundef i32 @_ZNK6icu_777UVector4sizeEv(ptr noundef nonnull align 8 dereferenceable(40) %24)
  store i32 %25, ptr %7, align 4, !tbaa !26
  call void @llvm.lifetime.start.p0(i64 4, ptr %8) #11
  store i32 0, ptr %8, align 4, !tbaa !26
  br label %26

26:                                               ; preds = %72, %2
  %27 = load i32, ptr %8, align 4, !tbaa !26
  %28 = load i32, ptr %7, align 4, !tbaa !26
  %29 = icmp slt i32 %27, %28
  br i1 %29, label %31, label %30

30:                                               ; preds = %26
  store i32 2, ptr %9, align 4
  call void @llvm.lifetime.end.p0(i64 4, ptr %8) #11
  br label %75

31:                                               ; preds = %26
  call void @llvm.lifetime.start.p0(i64 8, ptr %10) #11
  %32 = getelementptr inbounds nuw %"class.icu_77::RBBITableBuilder", ptr %15, i32 0, i32 4
  %33 = load ptr, ptr %32, align 8, !tbaa !21
  %34 = load i32, ptr %8, align 4, !tbaa !26
  %35 = call noundef ptr @_ZNK6icu_777UVector9elementAtEi(ptr noundef nonnull align 8 dereferenceable(40) %33, i32 noundef %34)
  store ptr %35, ptr %10, align 8, !tbaa !138
  call void @llvm.lifetime.start.p0(i64 4, ptr %11) #11
  %36 = load ptr, ptr %10, align 8, !tbaa !138
  %37 = call noundef i32 @_ZNK6icu_7713UnicodeString6lengthEv(ptr noundef nonnull align 8 dereferenceable(64) %36)
  store i32 %37, ptr %11, align 4, !tbaa !26
  call void @llvm.lifetime.start.p0(i64 4, ptr %12) #11
  store i32 0, ptr %12, align 4, !tbaa !26
  br label %38

38:                                               ; preds = %68, %31
  %39 = load i32, ptr %12, align 4, !tbaa !26
  %40 = load i32, ptr %11, align 4, !tbaa !26
  %41 = icmp slt i32 %39, %40
  br i1 %41, label %43, label %42

42:                                               ; preds = %38
  store i32 5, ptr %9, align 4
  call void @llvm.lifetime.end.p0(i64 4, ptr %12) #11
  br label %71

43:                                               ; preds = %38
  call void @llvm.lifetime.start.p0(i64 4, ptr %13) #11
  %44 = load ptr, ptr %10, align 8, !tbaa !138
  %45 = load i32, ptr %12, align 4, !tbaa !26
  %46 = call noundef zeroext i16 @_ZNK6icu_7713UnicodeString6charAtEi(ptr noundef nonnull align 8 dereferenceable(64) %44, i32 noundef %45)
  %47 = zext i16 %46 to i32
  store i32 %47, ptr %13, align 4, !tbaa !26
  call void @llvm.lifetime.start.p0(i64 4, ptr %14) #11
  %48 = load i32, ptr %13, align 4, !tbaa !26
  store i32 %48, ptr %14, align 4, !tbaa !26
  %49 = load i32, ptr %13, align 4, !tbaa !26
  %50 = load i32, ptr %6, align 4, !tbaa !26
  %51 = icmp eq i32 %49, %50
  br i1 %51, label %52, label %54

52:                                               ; preds = %43
  %53 = load i32, ptr %5, align 4, !tbaa !26
  store i32 %53, ptr %14, align 4, !tbaa !26
  br label %62

54:                                               ; preds = %43
  %55 = load i32, ptr %13, align 4, !tbaa !26
  %56 = load i32, ptr %6, align 4, !tbaa !26
  %57 = icmp sgt i32 %55, %56
  br i1 %57, label %58, label %61

58:                                               ; preds = %54
  %59 = load i32, ptr %13, align 4, !tbaa !26
  %60 = sub nsw i32 %59, 1
  store i32 %60, ptr %14, align 4, !tbaa !26
  br label %61

61:                                               ; preds = %58, %54
  br label %62

62:                                               ; preds = %61, %52
  %63 = load ptr, ptr %10, align 8, !tbaa !138
  %64 = load i32, ptr %12, align 4, !tbaa !26
  %65 = load i32, ptr %14, align 4, !tbaa !26
  %66 = trunc i32 %65 to i16
  %67 = call noundef nonnull align 8 dereferenceable(64) ptr @_ZN6icu_7713UnicodeString9setCharAtEiDs(ptr noundef nonnull align 8 dereferenceable(64) %63, i32 noundef %64, i16 noundef zeroext %66)
  call void @llvm.lifetime.end.p0(i64 4, ptr %14) #11
  call void @llvm.lifetime.end.p0(i64 4, ptr %13) #11
  br label %68

68:                                               ; preds = %62
  %69 = load i32, ptr %12, align 4, !tbaa !26
  %70 = add nsw i32 %69, 1
  store i32 %70, ptr %12, align 4, !tbaa !26
  br label %38, !llvm.loop !144

71:                                               ; preds = %42
  call void @llvm.lifetime.end.p0(i64 4, ptr %11) #11
  call void @llvm.lifetime.end.p0(i64 8, ptr %10) #11
  br label %72

72:                                               ; preds = %71
  %73 = load i32, ptr %8, align 4, !tbaa !26
  %74 = add nsw i32 %73, 1
  store i32 %74, ptr %8, align 4, !tbaa !26
  br label %26, !llvm.loop !145

75:                                               ; preds = %30
  call void @llvm.lifetime.end.p0(i64 4, ptr %7) #11
  call void @llvm.lifetime.end.p0(i64 4, ptr %6) #11
  call void @llvm.lifetime.end.p0(i64 4, ptr %5) #11
  ret void
}