; Function Attrs: mustprogress uwtable
define void @_ZN6icu_7716RBBITableBuilder15removeSafeStateESt4pairIiiE(ptr noundef nonnull readonly align 8 captures(none) dereferenceable(52) %0, i64 %1) local_unnamed_addr #0 align 2 {
  %.sroa.0.0.extract.trunc = trunc i64 %1 to i16
  %.sroa.2.0.extract.shift = lshr i64 %1, 32
  %.sroa.2.0.extract.trunc = trunc nuw i64 %.sroa.2.0.extract.shift to i32
  %3 = getelementptr inbounds nuw i8, ptr %0, i64 32
  %4 = load ptr, ptr %3, align 8, !tbaa !28
  tail call void @_ZN6icu_777UVector15removeElementAtEi(ptr noundef nonnull align 8 dereferenceable(40) %4, i32 noundef %.sroa.2.0.extract.trunc)
  %5 = load ptr, ptr %3, align 8, !tbaa !28
  %6 = getelementptr inbounds nuw i8, ptr %5, i64 8
  %7 = load i32, ptr %6, align 8, !tbaa !20
  %8 = icmp sgt i32 %7, 0
  br i1 %8, label %.lr.ph27, label %._crit_edge28

._crit_edge28:                                    ; preds = %._crit_edge, %2
  ret void

.lr.ph27:                                         ; preds = %2, %._crit_edge
  %.02125 = phi i32 [ %22, %._crit_edge ], [ 0, %2 ]
  %9 = load ptr, ptr %3, align 8, !tbaa !28
  %10 = tail call noundef ptr @_ZNK6icu_777UVector9elementAtEi(ptr noundef nonnull align 8 dereferenceable(40) %9, i32 noundef %.02125)
  %11 = getelementptr inbounds nuw i8, ptr %10, i64 8
  %12 = load i16, ptr %11, align 8, !tbaa !116
  %13 = icmp slt i16 %12, 0
  %14 = ashr i16 %12, 5
  %15 = sext i16 %14 to i32
  %16 = getelementptr inbounds nuw i8, ptr %10, i64 12
  %17 = load i32, ptr %16, align 4
  %18 = select i1 %13, i32 %17, i32 %15
  %19 = icmp sgt i32 %18, 0
  br i1 %19, label %.lr.ph, label %._crit_edge

.lr.ph:                                           ; preds = %.lr.ph27
  %20 = getelementptr inbounds nuw i8, ptr %10, i64 10
  %21 = getelementptr inbounds nuw i8, ptr %10, i64 24
  %wide.trip.count = zext nneg i32 %18 to i64
  br label %23

._crit_edge:                                      ; preds = %_ZNK6icu_7713UnicodeString6charAtEi.exit, %.lr.ph27
  %22 = add nuw nsw i32 %.02125, 1
  %exitcond30.not = icmp eq i32 %22, %7
  br i1 %exitcond30.not, label %._crit_edge28, label %.lr.ph27, !llvm.loop !124

23:                                               ; preds = %.lr.ph, %_ZNK6icu_7713UnicodeString6charAtEi.exit
  %indvars.iv = phi i64 [ 0, %.lr.ph ], [ %indvars.iv.next, %_ZNK6icu_7713UnicodeString6charAtEi.exit ]
  %24 = load i16, ptr %11, align 8, !tbaa !116
  %25 = icmp slt i16 %24, 0
  %26 = ashr i16 %24, 5
  %27 = sext i16 %26 to i32
  %28 = load i32, ptr %16, align 4
  %29 = select i1 %25, i32 %28, i32 %27
  %30 = zext i32 %29 to i64
  %31 = icmp samesign ult i64 %indvars.iv, %30
  br i1 %31, label %32, label %_ZNK6icu_7713UnicodeString6charAtEi.exit

32:                                               ; preds = %23
  %33 = and i16 %24, 2
  %.not.i.i.i = icmp eq i16 %33, 0
  %34 = load ptr, ptr %21, align 8
  %35 = select i1 %.not.i.i.i, ptr %34, ptr %20
  %36 = getelementptr inbounds nuw i16, ptr %35, i64 %indvars.iv
  %37 = load i16, ptr %36, align 2, !tbaa !117
  br label %_ZNK6icu_7713UnicodeString6charAtEi.exit

_ZNK6icu_7713UnicodeString6charAtEi.exit:         ; preds = %23, %32
  %.0.i.i = phi i16 [ %37, %32 ], [ -1, %23 ]
  %38 = zext i16 %.0.i.i to i32
  %39 = icmp eq i32 %38, %.sroa.2.0.extract.trunc
  %40 = icmp sgt i32 %38, %.sroa.2.0.extract.trunc
  %41 = sext i1 %40 to i16
  %spec.select = add i16 %.0.i.i, %41
  %.0 = select i1 %39, i16 %.sroa.0.0.extract.trunc, i16 %spec.select
  %42 = trunc nuw nsw i64 %indvars.iv to i32
  %43 = tail call noundef nonnull align 8 dereferenceable(64) ptr @_ZN6icu_7713UnicodeString9setCharAtEiDs(ptr noundef nonnull align 8 dereferenceable(64) %10, i32 noundef %42, i16 noundef zeroext %.0)
  %indvars.iv.next = add nuw nsw i64 %indvars.iv, 1
  %exitcond.not = icmp eq i64 %indvars.iv.next, %wide.trip.count
  br i1 %exitcond.not, label %._crit_edge, label %23, !llvm.loop !125
}